target datalayout = "e-m:e-p270:32:32-p271:32:32-p272:64:64-i64:64-i128:128-f80:128-n8:16:32:64-S128"
target triple = "x86_64-pc-linux-gnu"

%struct.rb_data_type_struct = type { ptr, %struct.anon.12, ptr, ptr, i64 }
%struct.anon.12 = type { ptr, ptr, ptr, ptr, [1 x ptr] }
%struct.RBasic = type { i64, i64 }
%struct.rb_execarg = type { %union.anon.13, i64, i64, i64, i64, i16, ptr, ptr, i32, i64, i32, i32, i32, i32, i64, i64, i64, i64, i64, i64, i64 }
%union.anon.13 = type { %struct.anon.15 }
%struct.anon.15 = type { i64, i64, i64, i64 }

@exec_arg_data_type = internal constant %struct.rb_data_type_struct { ptr @.str.186, %struct.anon.12 { ptr @mark_exec_arg, ptr inttoptr (i64 -1 to ptr), ptr @memsize_exec_arg, ptr null, [1 x ptr] zeroinitializer }, ptr null, ptr null, i64 3 }, align 8

; Function Attrs: inlinehint nounwind sspstrong uwtable
define internal void @RBASIC_SET_CLASS_RAW(i64 noundef %0, i64 noundef %1) #1 {
  %3 = alloca i64, align 8
  %4 = alloca i64, align 8
  %5 = alloca ptr, align 8
  store i64 %0, ptr %3, align 8, !tbaa !35
  store i64 %1, ptr %4, align 8, !tbaa !35
  call void @llvm.lifetime.start.p0(i64 8, ptr %5) #27
  %6 = load i64, ptr %3, align 8, !tbaa !35
  %7 = inttoptr i64 %6 to ptr
  %8 = getelementptr inbounds nuw %struct.RBasic, ptr %7, i32 0, i32 1
  store ptr %8, ptr %5, align 8, !tbaa !70
  %9 = load i64, ptr %4, align 8, !tbaa !35
  %10 = load ptr, ptr %5, align 8, !tbaa !70
  store i64 %9, ptr %10, align 8, !tbaa !35
  call void @llvm.lifetime.end.p0(i64 8, ptr %5) #27
  ret void
}

; Function Attrs: inlinehint nounwind sspstrong uwtable
define internal void @RBASIC_CLEAR_CLASS(i64 noundef %0) #1 {
  %2 = alloca i64, align 8
  store i64 %0, ptr %2, align 8, !tbaa !35
  %3 = load i64, ptr %2, align 8, !tbaa !35
  call void @RBASIC_SET_CLASS_RAW(i64 noundef %3, i64 noundef 0)
  ret void
}

; Function Attrs: nounwind sspstrong uwtable
define internal i64 @hide_obj(i64 noundef %0) #0 {
  %2 = alloca i64, align 8
  store i64 %0, ptr %2, align 8, !tbaa !35
  %3 = load i64, ptr %2, align 8, !tbaa !35
  call void @RBASIC_CLEAR_CLASS(i64 noundef %3)
  %4 = load i64, ptr %2, align 8, !tbaa !35
  ret i64 %4
}

; Function Attrs: nounwind sspstrong uwtable
define internal i64 @rb_check_exec_env(i64 noundef %0, ptr noundef %1) #0 {
  %3 = alloca i64, align 8
  %4 = alloca ptr, align 8
  %5 = alloca [2 x i64], align 16
  store i64 %0, ptr %3, align 8, !tbaa !35
  store ptr %1, ptr %4, align 8, !tbaa !70
  call void @llvm.lifetime.start.p0(i64 16, ptr %5) #27
  %6 = call i64 @rb_ary_new()
  %7 = call i64 @hide_obj(i64 noundef %6)
  %8 = getelementptr [2 x i64], ptr %5, i64 0, i64 0
  store i64 %7, ptr %8, align 16, !tbaa !35
  %9 = getelementptr [2 x i64], ptr %5, i64 0, i64 1
  store i64 0, ptr %9, align 8, !tbaa !35
  %10 = load i64, ptr %3, align 8, !tbaa !35
  %11 = getelementptr inbounds [2 x i64], ptr %5, i64 0, i64 0
  %12 = ptrtoint ptr %11 to i64
  %13 = call i32 @rb_hash_stlike_foreach(i64 noundef %10, ptr noundef @check_exec_env_i, i64 noundef %12)
  %14 = getelementptr [2 x i64], ptr %5, i64 0, i64 1
  %15 = load i64, ptr %14, align 8, !tbaa !35
  %16 = load ptr, ptr %4, align 8, !tbaa !70
  store i64 %15, ptr %16, align 8, !tbaa !35
  %17 = getelementptr [2 x i64], ptr %5, i64 0, i64 0
  %18 = load i64, ptr %17, align 16, !tbaa !35
  call void @llvm.lifetime.end.p0(i64 16, ptr %5) #27
  ret i64 %18
}

; Function Attrs: inlinehint nounwind sspstrong willreturn memory(none) uwtable
define internal zeroext i1 @RB_NIL_P(i64 noundef %0) #4 {
  %2 = alloca i64, align 8
  store i64 %0, ptr %2, align 8, !tbaa !35
  %3 = load i64, ptr %2, align 8, !tbaa !35
  %4 = icmp eq i64 %3, 4
  ret i1 %4
}

; Function Attrs: nounwind sspstrong uwtable
define dso_local ptr @rb_execarg_get(i64 noundef %0) #0 {
  %2 = alloca i64, align 8
  %3 = alloca ptr, align 8
  store i64 %0, ptr %2, align 8, !tbaa !35
  call void @llvm.lifetime.start.p0(i64 8, ptr %3) #27
  %4 = load i64, ptr %2, align 8, !tbaa !35
  %5 = call ptr @rb_check_typeddata(i64 noundef %4, ptr noundef @exec_arg_data_type)
  store ptr %5, ptr %3, align 8, !tbaa !68
  %6 = load ptr, ptr %3, align 8, !tbaa !68
  call void @llvm.lifetime.end.p0(i64 8, ptr %3) #27
  ret ptr %6
}

; Function Attrs: nounwind sspstrong uwtable
define dso_local void @rb_execarg_setenv(i64 noundef %0, i64 noundef %1) #0 {
  %3 = alloca i64, align 8
  %4 = alloca i64, align 8
  %5 = alloca ptr, align 8
  %6 = alloca ptr, align 8
  %7 = alloca ptr, align 8
  store i64 %0, ptr %3, align 8, !tbaa !35
  store i64 %1, ptr %4, align 8, !tbaa !35
  call void @llvm.lifetime.start.p0(i64 8, ptr %5) #27
  %8 = load i64, ptr %3, align 8, !tbaa !35
  %9 = call ptr @rb_execarg_get(i64 noundef %8)
  store ptr %9, ptr %5, align 8, !tbaa !68
  %10 = load i64, ptr %4, align 8, !tbaa !35
  %11 = call zeroext i1 @RB_NIL_P(i64 noundef %10) #28
  br i1 %11, label %17, label %12

12:                                               ; preds = %2
  %13 = load i64, ptr %4, align 8, !tbaa !35
  %14 = load ptr, ptr %5, align 8, !tbaa !68
  %15 = getelementptr inbounds nuw %struct.rb_execarg, ptr %14, i32 0, i32 19
  %16 = call i64 @rb_check_exec_env(i64 noundef %13, ptr noundef %15)
  br label %18

17:                                               ; preds = %2
  br label %18

18:                                               ; preds = %17, %12
  %19 = phi i64 [ %16, %12 ], [ 0, %17 ]
  store i64 %19, ptr %4, align 8, !tbaa !35
  %20 = load i64, ptr %4, align 8, !tbaa !35
  %21 = load ptr, ptr %5, align 8, !tbaa !68
  %22 = getelementptr inbounds nuw %struct.rb_execarg, ptr %21, i32 0, i32 18
  store i64 %20, ptr %22, align 8, !tbaa !91
  call void @llvm.lifetime.start.p0(i64 8, ptr %6) #27
  store ptr %3, ptr %6, align 8, !tbaa !70
  call void asm sideeffect "", "*m,~{dirflag},~{fpsr},~{flags}"(ptr elementtype(ptr) %6) #27, !srcloc !92
  %23 = load ptr, ptr %6, align 8, !tbaa !70
  store ptr %23, ptr %7, align 8, !tbaa !70
  call void @llvm.lifetime.end.p0(i64 8, ptr %6) #27
  %24 = load ptr, ptr %7, align 8, !tbaa !70
  %25 = load volatile i64, ptr %24, align 8, !tbaa !35
  call void @llvm.lifetime.end.p0(i64 8, ptr %5) #27
  ret void
}