; Function Attrs: nounwind sspstrong uwtable
define dso_local void @rb_execarg_setenv(i64 noundef %0, i64 noundef %1) local_unnamed_addr #1 {
  %3 = alloca [2 x i64], align 16
  %4 = alloca i64, align 8
  %5 = alloca ptr, align 8
  store i64 %0, ptr %4, align 8, !tbaa !43
  %6 = tail call ptr @rb_check_typeddata(i64 noundef %0, ptr noundef nonnull @exec_arg_data_type) #27
  %7 = icmp eq i64 %1, 4
  br i1 %7, label %18, label %8

8:                                                ; preds = %2
  %9 = getelementptr inbounds nuw i8, ptr %6, i64 160
  call void @llvm.lifetime.start.p0(i64 16, ptr nonnull %3) #27
  %10 = tail call i64 @rb_ary_new() #27
  %11 = inttoptr i64 %10 to ptr
  %12 = getelementptr inbounds nuw i8, ptr %11, i64 8
  store i64 0, ptr %12, align 8, !tbaa !43
  store i64 %10, ptr %3, align 16, !tbaa !43
  %13 = getelementptr inbounds nuw i8, ptr %3, i64 8
  store i64 0, ptr %13, align 8, !tbaa !43
  %14 = ptrtoint ptr %3 to i64
  %15 = call i32 @rb_hash_stlike_foreach(i64 noundef %1, ptr noundef nonnull @check_exec_env_i, i64 noundef %14) #27
  %16 = load i64, ptr %13, align 8, !tbaa !43
  store i64 %16, ptr %9, align 8, !tbaa !43
  %17 = load i64, ptr %3, align 16, !tbaa !43
  call void @llvm.lifetime.end.p0(i64 16, ptr nonnull %3) #27
  br label %18

18:                                               ; preds = %2, %8
  %19 = phi i64 [ %17, %8 ], [ 0, %2 ]
  %20 = getelementptr inbounds nuw i8, ptr %6, i64 152
  store i64 %19, ptr %20, align 8, !tbaa !102
  call void @llvm.lifetime.start.p0(i64 8, ptr nonnull %5) #27
  store ptr %4, ptr %5, align 8, !tbaa !75
  call void asm sideeffect "", "*m,~{dirflag},~{fpsr},~{flags}"(ptr nonnull elementtype(ptr) %5) #27, !srcloc !138
  %21 = load ptr, ptr %5, align 8, !tbaa !75
  call void @llvm.lifetime.end.p0(i64 8, ptr nonnull %5) #27
  %22 = load volatile i64, ptr %21, align 8, !tbaa !43
  ret void
}